; Function Attrs: null_pointer_is_valid sspstrong uwtable
define internal void @dtap_rr_dtm_rej(ptr noundef %0, ptr noundef %1, ptr noundef %2, i32 noundef %3, i32 noundef %4) #3 {
  %6 = icmp sgt i32 %4, 0
  br i1 %6, label %7, label %12

7:                                                ; preds = %5
  %8 = tail call zeroext i16 @elem_v(ptr noundef %0, ptr noundef %1, ptr noundef %2, i32 noundef 3, i32 noundef 72, i32 noundef %3, ptr noundef nonnull @.str.1852)
  %.not = icmp eq i16 %8, 0
  br i1 %.not, label %12, label %9

9:                                                ; preds = %7
  %10 = zext i16 %8 to i32
  %11 = add i32 %3, %10
  br label %15

12:                                               ; preds = %7, %5
  %13 = tail call ptr @get_gsm_a_msg_string(i32 noundef 3, i32 noundef 72)
  %14 = tail call ptr (ptr, ptr, ptr, ptr, i32, i32, ptr, ...) @proto_tree_add_expert_format(ptr noundef %1, ptr noundef %2, ptr noundef nonnull @ei_gsm_a_rr_missing_mandatory_element, ptr noundef %0, i32 noundef %3, i32 noundef 0, ptr noundef nonnull @.str.83, ptr noundef %13, ptr noundef nonnull @.str.1852)
  br label %15

15:                                               ; preds = %12, %9
  %.0 = phi i32 [ %11, %9 ], [ %3, %12 ]
  %16 = sub i32 %.0, %3
  %17 = icmp ugt i32 %4, %16
  br i1 %17, label %18, label %21

18:                                               ; preds = %15
  %19 = sub nuw i32 %4, %16
  %20 = tail call ptr @proto_tree_add_expert(ptr noundef %1, ptr noundef %2, ptr noundef nonnull @ei_gsm_a_rr_extraneous_data, ptr noundef %0, i32 noundef %.0, i32 noundef %19)
  br label %21

21:                                               ; preds = %18, %15
  ret void
}